; Function Attrs: mustprogress nofree nosync nounwind willreturn memory(write, argmem: readwrite, inaccessiblemem: none) uwtable
define noundef i32 @_ZN3zmq7radio_t11xsetsockoptEiPKvm(ptr nocapture noundef nonnull writeonly align 8 dereferenceable(1968) %this, i32 noundef %option_, ptr nocapture noundef readonly %optval_, i64 noundef %optvallen_) unnamed_addr #8 align 2 {
entry:
  %cmp.not = icmp eq i64 %optvallen_, 4
  br i1 %cmp.not, label %lor.lhs.false, label %if.then

lor.lhs.false:                                    ; preds = %entry
  %0 = load i32, ptr %optval_, align 4
  %cmp2 = icmp slt i32 %0, 0
  br i1 %cmp2, label %if.then, label %if.end

if.then:                                          ; preds = %lor.lhs.false, %entry
  %call = tail call ptr @__errno_location() #27
  store i32 22, ptr %call, align 4
  br label %return

if.end:                                           ; preds = %lor.lhs.false
  %cmp3 = icmp eq i32 %option_, 69
  br i1 %cmp3, label %if.then4, label %if.else

if.then4:                                         ; preds = %if.end
  %cmp5 = icmp eq i32 %0, 0
  %_lossy = getelementptr inbounds i8, ptr %this, i64 1960
  %frombool = zext i1 %cmp5 to i8
  store i8 %frombool, ptr %_lossy, align 8
  br label %return

if.else:                                          ; preds = %if.end
  %call6 = tail call ptr @__errno_location() #27
  store i32 22, ptr %call6, align 4
  br label %return

return:                                           ; preds = %if.then4, %if.else, %if.then
  %retval.0 = phi i32 [ -1, %if.then ], [ 0, %if.then4 ], [ -1, %if.else ]
  ret i32 %retval.0
}